 c000000:	f141 0004 	adc.w	r0, r1, #4
 c000004:	f151 0000 	adcs.w	r0, r1, #0
 c000008:	f142 01ff 	adc.w	r1, r2, #255
 c00000c:	f147 1355 	adc.w	r3, r7, #5570645
 c000010:	f14c 28aa 	adc.w	r8, ip, #2852170240
 c000014:	f147 39a5 	adc.w	r9, r7, #2779096485
 c000018:	f143 4507 	adc.w	r5, r3, #2264924160
 c00001c:	f142 44ff 	adc.w	r4, r2, #2139095040
 c000020:	f542 64d0 	adc.w	r4, r2, #1664
 c000024:	eb45 0406 	adc.w	r4, r5, r6
 c000028:	eb55 0406 	adcs.w	r4, r5, r6
 c00002c:	eb41 0903 	adc.w	r9, r1, r3
 c000030:	eb51 0903 	adcs.w	r9, r1, r3
 c000034:	eb41 1033 	adc.w	r0, r1, r3, ror #4
 c000038:	eb51 10c3 	adcs.w	r0, r1, r3, lsl #7
 c00003c:	eb41 70d3 	adc.w	r0, r1, r3, lsr #31
 c000040:	eb51 0023 	adcs.w	r0, r1, r3, asr #32
 c000044:	bf0a      	itet	eq
 c000046:	1d11      	addeq	r1, r2, #4
 c000048:	f203 35ff 	addwne	r5, r3, #1023
 c00004c:	f105 04fa 	addeq.w	r4, r5, #250
 c000050:	f50d 6280 	add.w	r2, sp, #1024
 c000054:	f508 427f 	add.w	r2, r8, #65280
 c000058:	f203 1201 	addw	r2, r3, #257
 c00005c:	f203 1201 	addw	r2, r3, #257
 c000060:	f506 7c80 	add.w	ip, r6, #256
 c000064:	f206 1c00 	addw	ip, r6, #256
 c000068:	f512 71f8 	adds.w	r1, r2, #496
 c00006c:	eb02 0108 	add.w	r1, r2, r8
 c000070:	eb09 0522 	add.w	r5, r9, r2, asr #32
 c000074:	eb13 77c1 	adds.w	r7, r3, r1, lsl #31
 c000078:	eb13 6056 	adds.w	r0, r3, r6, lsr #25
 c00007c:	eb08 3431 	add.w	r4, r8, r1, ror #12
 c000080:	f6af 4bc6 	subw	fp, pc, #3270
 c000084:	f2af 0b04 	subw	fp, pc, #4
 c000088:	f405 227f 	and.w	r2, r5, #1044480
 c00008c:	f01c 030f 	ands.w	r3, ip, #15
 c000090:	f001 01ff 	and.w	r1, r1, #255
 c000094:	f001 01ff 	and.w	r1, r1, #255
 c000098:	f405 227f 	and.w	r2, r5, #1044480
 c00009c:	f01c 030f 	ands.w	r3, ip, #15
 c0000a0:	f001 01ff 	and.w	r1, r1, #255
 c0000a4:	f001 01ff 	and.w	r1, r1, #255
 c0000a8:	ea09 0408 	and.w	r4, r9, r8
 c0000ac:	ea04 01e8 	and.w	r1, r4, r8, asr #3
 c0000b0:	ea11 0247 	ands.w	r2, r1, r7, lsl #1
 c0000b4:	ea15 5412 	ands.w	r4, r5, r2, lsr #20
 c0000b8:	ea0c 4971 	and.w	r9, ip, r1, ror #17
 c0000bc:	ea4f 3223 	mov.w	r2, r3, asr #12
 c0000c0:	ea5f 0823 	movs.w	r8, r3, asr #32
 c0000c4:	ea5f 0263 	movs.w	r2, r3, asr #1
 c0000c8:	ea4f 1223 	mov.w	r2, r3, asr #4
 c0000cc:	ea5f 32ec 	movs.w	r2, ip, asr #15
 c0000d0:	ea4f 43e3 	mov.w	r3, r3, asr #19
 c0000d4:	ea5f 08a8 	movs.w	r8, r8, asr #2
 c0000d8:	ea5f 1767 	movs.w	r7, r7, asr #5
 c0000dc:	ea4f 5c6c 	mov.w	ip, ip, asr #21
 c0000e0:	fa44 f302 	asr.w	r3, r4, r2
 c0000e4:	fa41 f102 	asr.w	r1, r1, r2
 c0000e8:	fa54 f308 	asrs.w	r3, r4, r8
 c0000ec:	f36f 05d3 	bfc	r5, #3, #17
 c0000f0:	bf38      	it	cc
 c0000f2:	f36f 05d3 	bfccc	r5, #3, #17
 c0000f6:	f362 05d3 	bfi	r5, r2, #3, #17
 c0000fa:	bf18      	it	ne
 c0000fc:	f362 05d3 	bfine	r5, r2, #3, #17
 c000100:	f021 0a0f 	bic.w	sl, r1, #15
 c000104:	ea23 0c06 	bic.w	ip, r3, r6
 c000108:	ea22 3b06 	bic.w	fp, r2, r6, lsl #12
 c00010c:	ea24 28d1 	bic.w	r8, r4, r1, lsr #11
 c000110:	ea25 37d7 	bic.w	r7, r5, r7, lsr #15
 c000114:	ea27 0629 	bic.w	r6, r7, r9, asr #32
 c000118:	ea26 0578 	bic.w	r5, r6, r8, ror #1
 c00011c:	f021 010f 	bic.w	r1, r1, #15
 c000120:	ea21 0101 	bic.w	r1, r1, r1
 c000124:	bf58      	it	pl
 c000126:	beea      	bkpt	0x00ea
 c000128:	4728      	bx	r5
 c00012a:	bf18      	it	ne
 c00012c:	4738      	bxne	r7
 c00012e:	ee11 1781 	cdp	7, 1, cr1, cr1, cr1, {4}
 c000132:	fe11 1781 	cdp2	7, 1, cr1, cr1, cr1, {4}
 c000136:	f3bf 8f2f 	clrex
 c00013a:	bf18      	it	ne
 c00013c:	f3bf 8f2f 	clrexne
 c000140:	fab2 f182 	clz	r1, r2
 c000144:	bf08      	it	eq
 c000146:	fab2 f182 	clzeq	r1, r2
 c00014a:	f111 0f0f 	cmn.w	r1, #15
 c00014e:	eb18 0f06 	cmn.w	r8, r6
 c000152:	eb11 2f86 	cmn.w	r1, r6, lsl #10
 c000156:	eb11 2f96 	cmn.w	r1, r6, lsr #10
 c00015a:	eb1d 2f96 	cmn.w	sp, r6, lsr #10
 c00015e:	eb11 2fa6 	cmn.w	r1, r6, asr #10
 c000162:	eb11 2fb6 	cmn.w	r1, r6, ror #10
 c000166:	f5b5 4f7f 	cmp.w	r5, #65280
 c00016a:	ebb4 0f0c 	cmp.w	r4, ip
 c00016e:	ebb9 3f06 	cmp.w	r9, r6, lsl #12
 c000172:	ebb3 7fd7 	cmp.w	r3, r7, lsr #31
 c000176:	ebbd 0f56 	cmp.w	sp, r6, lsr #1
 c00017a:	ebb2 6f25 	cmp.w	r2, r5, asr #24
 c00017e:	ebb1 3ff4 	cmp.w	r1, r4, ror #15
 c000182:	f3af 80f5 	dbg	#5
 c000186:	f3af 80f0 	dbg	#0
 c00018a:	f3af 80ff 	dbg	#15
 c00018e:	f3bf 8f5f 	dmb	sy
 c000192:	f3bf 8f5f 	dmb	sy
 c000196:	f3bf 8f4f 	dsb	sy
 c00019a:	f3bf 8f4f 	dsb	sy
 c00019e:	f485 4470 	eor.w	r4, r5, #61440
 c0001a2:	ea85 0406 	eor.w	r4, r5, r6
 c0001a6:	ea85 1446 	eor.w	r4, r5, r6, lsl #5
 c0001aa:	ea85 1456 	eor.w	r4, r5, r6, lsr #5
 c0001ae:	ea85 1456 	eor.w	r4, r5, r6, lsr #5
 c0001b2:	ea85 1466 	eor.w	r4, r5, r6, asr #5
 c0001b6:	ea85 1476 	eor.w	r4, r5, r6, ror #5
 c0001ba:	f3bf 8f6f 	isb	sy
 c0001be:	f3bf 8f6f 	isb	sy
 c0001c2:	bf0d      	iteet	eq
 c0001c4:	1888      	addeq	r0, r1, r2
 c0001c6:	bf00      	nopne
 c0001c8:	1bf5      	subne	r5, r6, r7
 c0001ca:	1d11      	addeq	r1, r2, #4
 c0001cc:	e894 0330 	ldmia.w	r4, {r4, r5, r8, r9}
 c0001d0:	e894 0060 	ldmia.w	r4, {r5, r6}
 c0001d4:	e8b5 0108 	ldmia.w	r5!, {r3, r8}
 c0001d8:	e894 0330 	ldmia.w	r4, {r4, r5, r8, r9}
 c0001dc:	e894 0060 	ldmia.w	r4, {r5, r6}
 c0001e0:	e8b5 0108 	ldmia.w	r5!, {r3, r8}
 c0001e4:	e8b5 0006 	ldmia.w	r5!, {r1, r2}
 c0001e8:	e892 0006 	ldmia.w	r2, {r1, r2}
 c0001ec:	e894 0330 	ldmia.w	r4, {r4, r5, r8, r9}
 c0001f0:	e894 0060 	ldmia.w	r4, {r5, r6}
 c0001f4:	e8b5 0108 	ldmia.w	r5!, {r3, r8}
 c0001f8:	e894 0330 	ldmia.w	r4, {r4, r5, r8, r9}
 c0001fc:	e894 0060 	ldmia.w	r4, {r5, r6}
 c000200:	e8b5 0108 	ldmia.w	r5!, {r3, r8}
 c000204:	e8b5 0108 	ldmia.w	r5!, {r3, r8}
 c000208:	e914 0330 	ldmdb	r4, {r4, r5, r8, r9}
 c00020c:	e914 0060 	ldmdb	r4, {r5, r6}
 c000210:	e935 0108 	ldmdb	r5!, {r3, r8}
 c000214:	e935 0108 	ldmdb	r5!, {r3, r8}
 c000218:	f855 5c04 	ldr.w	r5, [r5, #-4]
 c00021c:	6a35      	ldr	r5, [r6, #32]
 c00021e:	f8d6 5021 	ldr.w	r5, [r6, #33]
 c000222:	f8d6 5101 	ldr.w	r5, [r6, #257]
 c000226:	f8d7 f101 	ldr.w	pc, [r7, #257]
 c00022a:	f854 2fff 	ldr.w	r2, [r4, #255]!
 c00022e:	f85d 8f04 	ldr.w	r8, [sp, #4]!
 c000232:	f85d ed04 	ldr.w	lr, [sp, #-4]!
 c000236:	f854 2bff 	ldr.w	r2, [r4], #255
 c00023a:	f85d 8b04 	ldr.w	r8, [sp], #4
 c00023e:	f85d e904 	ldr.w	lr, [sp], #-4
 c000242:	f8df 5b74 	ldr.w	r5, [pc, #2932]
 c000246:	f858 1001 	ldr.w	r1, [r8, r1]
 c00024a:	f855 4002 	ldr.w	r4, [r5, r2]
 c00024e:	f850 6032 	ldr.w	r6, [r0, r2, lsl #3]
 c000252:	f858 8022 	ldr.w	r8, [r8, r2, lsl #2]
 c000256:	f85d 7012 	ldr.w	r7, [sp, r2, lsl #1]
 c00025a:	f85d 7002 	ldr.w	r7, [sp, r2]
 c00025e:	f815 5c04 	ldrb.w	r5, [r5, #-4]
 c000262:	f896 5020 	ldrb.w	r5, [r6, #32]
 c000266:	f896 5021 	ldrb.w	r5, [r6, #33]
 c00026a:	f896 5101 	ldrb.w	r5, [r6, #257]
 c00026e:	f897 e101 	ldrb.w	lr, [r7, #257]
 c000272:	f818 5fff 	ldrb.w	r5, [r8, #255]!
 c000276:	f815 2f04 	ldrb.w	r2, [r5, #4]!
 c00027a:	f814 1d04 	ldrb.w	r1, [r4, #-4]!
 c00027e:	f813 ebff 	ldrb.w	lr, [r3], #255
 c000282:	f812 9b04 	ldrb.w	r9, [r2], #4
 c000286:	f81d 3904 	ldrb.w	r3, [sp], #-4
 c00028a:	f818 1001 	ldrb.w	r1, [r8, r1]
 c00028e:	f815 4002 	ldrb.w	r4, [r5, r2]
 c000292:	f810 6032 	ldrb.w	r6, [r0, r2, lsl #3]
 c000296:	f818 8022 	ldrb.w	r8, [r8, r2, lsl #2]
 c00029a:	f81d 7012 	ldrb.w	r7, [sp, r2, lsl #1]
 c00029e:	f81d 7002 	ldrb.w	r7, [sp, r2]
 c0002a2:	f812 1e00 	ldrbt	r1, [r2]
 c0002a6:	f818 1e00 	ldrbt	r1, [r8]
 c0002aa:	f818 1e03 	ldrbt	r1, [r8, #3]
 c0002ae:	f818 1eff 	ldrbt	r1, [r8, #255]
 c0002b2:	e9d6 3506 	ldrd	r3, r5, [r6, #24]
 c0002b6:	e9f6 3506 	ldrd	r3, r5, [r6, #24]!
 c0002ba:	e8f6 3501 	ldrd	r3, r5, [r6], #4
 c0002be:	e876 3502 	ldrd	r3, r5, [r6], #-8
 c0002c2:	e9d6 3500 	ldrd	r3, r5, [r6]
 c0002c6:	e9d3 8100 	ldrd	r8, r1, [r3]
 c0002ca:	e854 1f00 	ldrex	r1, [r4]
 c0002ce:	e854 8f00 	ldrex	r8, [r4]
 c0002d2:	e85d 2f20 	ldrex	r2, [sp, #128]
 c0002d6:	e8d7 5f4f 	ldrexb	r5, [r7]
 c0002da:	e8dc 9f5f 	ldrexh	r9, [ip]
 c0002de:	f835 5c04 	ldrh.w	r5, [r5, #-4]
 c0002e2:	8c35      	ldrh	r5, [r6, #32]
 c0002e4:	f8b6 5021 	ldrh.w	r5, [r6, #33]
 c0002e8:	f8b6 5101 	ldrh.w	r5, [r6, #257]
 c0002ec:	f8b7 e101 	ldrh.w	lr, [r7, #257]
 c0002f0:	f838 5fff 	ldrh.w	r5, [r8, #255]!
 c0002f4:	f835 2f04 	ldrh.w	r2, [r5, #4]!
 c0002f8:	f834 1d04 	ldrh.w	r1, [r4, #-4]!
 c0002fc:	f833 ebff 	ldrh.w	lr, [r3], #255
 c000300:	f832 9b04 	ldrh.w	r9, [r2], #4
 c000304:	f83d 3904 	ldrh.w	r3, [sp], #-4
 c000308:	f838 1001 	ldrh.w	r1, [r8, r1]
 c00030c:	f835 4002 	ldrh.w	r4, [r5, r2]
 c000310:	f830 6032 	ldrh.w	r6, [r0, r2, lsl #3]
 c000314:	f838 8022 	ldrh.w	r8, [r8, r2, lsl #2]
 c000318:	f83d 7012 	ldrh.w	r7, [sp, r2, lsl #1]
 c00031c:	f83d 7002 	ldrh.w	r7, [sp, r2]
 c000320:	f8bf 5a98 	ldrh.w	r5, [pc, #2712]
 c000324:	f832 1e00 	ldrht	r1, [r2]
 c000328:	f838 1e00 	ldrht	r1, [r8]
 c00032c:	f838 1e03 	ldrht	r1, [r8, #3]
 c000330:	f838 1eff 	ldrht	r1, [r8, #255]
 c000334:	f915 5c04 	ldrsb.w	r5, [r5, #-4]
 c000338:	f996 5020 	ldrsb.w	r5, [r6, #32]
 c00033c:	f996 5021 	ldrsb.w	r5, [r6, #33]
 c000340:	f996 5101 	ldrsb.w	r5, [r6, #257]
 c000344:	f997 e101 	ldrsb.w	lr, [r7, #257]
 c000348:	f918 1001 	ldrsb.w	r1, [r8, r1]
 c00034c:	f915 4002 	ldrsb.w	r4, [r5, r2]
 c000350:	f910 6032 	ldrsb.w	r6, [r0, r2, lsl #3]
 c000354:	f918 8022 	ldrsb.w	r8, [r8, r2, lsl #2]
 c000358:	f91d 7012 	ldrsb.w	r7, [sp, r2, lsl #1]
 c00035c:	f91d 7002 	ldrsb.w	r7, [sp, r2]
 c000360:	f918 5fff 	ldrsb.w	r5, [r8, #255]!
 c000364:	f915 2f04 	ldrsb.w	r2, [r5, #4]!
 c000368:	f914 1d04 	ldrsb.w	r1, [r4, #-4]!
 c00036c:	f913 ebff 	ldrsb.w	lr, [r3], #255
 c000370:	f912 9b04 	ldrsb.w	r9, [r2], #4
 c000374:	f91d 3904 	ldrsb.w	r3, [sp], #-4
 c000378:	f99f 5a40 	ldrsb.w	r5, [pc, #2624]
 c00037c:	f912 1e00 	ldrsbt	r1, [r2]
 c000380:	f918 1e00 	ldrsbt	r1, [r8]
 c000384:	f918 1e03 	ldrsbt	r1, [r8, #3]
 c000388:	f918 1eff 	ldrsbt	r1, [r8, #255]
 c00038c:	f935 5c04 	ldrsh.w	r5, [r5, #-4]
 c000390:	f9b6 5020 	ldrsh.w	r5, [r6, #32]
 c000394:	f9b6 5021 	ldrsh.w	r5, [r6, #33]
 c000398:	f9b6 5101 	ldrsh.w	r5, [r6, #257]
 c00039c:	f9b7 e101 	ldrsh.w	lr, [r7, #257]
 c0003a0:	f938 1001 	ldrsh.w	r1, [r8, r1]
 c0003a4:	f935 4002 	ldrsh.w	r4, [r5, r2]
 c0003a8:	f930 6032 	ldrsh.w	r6, [r0, r2, lsl #3]
 c0003ac:	f938 8022 	ldrsh.w	r8, [r8, r2, lsl #2]
 c0003b0:	f93d 7012 	ldrsh.w	r7, [sp, r2, lsl #1]
 c0003b4:	f93d 7002 	ldrsh.w	r7, [sp, r2]
 c0003b8:	f938 5fff 	ldrsh.w	r5, [r8, #255]!
 c0003bc:	f935 2f04 	ldrsh.w	r2, [r5, #4]!
 c0003c0:	f934 1d04 	ldrsh.w	r1, [r4, #-4]!
 c0003c4:	f933 ebff 	ldrsh.w	lr, [r3], #255
 c0003c8:	f932 9b04 	ldrsh.w	r9, [r2], #4
 c0003cc:	f93d 3904 	ldrsh.w	r3, [sp], #-4
 c0003d0:	f9bf 59e8 	ldrsh.w	r5, [pc, #2536]
 c0003d4:	f932 1e00 	ldrsht	r1, [r2]
 c0003d8:	f938 1e00 	ldrsht	r1, [r8]
 c0003dc:	f938 1e03 	ldrsht	r1, [r8, #3]
 c0003e0:	f938 1eff 	ldrsht	r1, [r8, #255]
 c0003e4:	f852 1e00 	ldrt	r1, [r2]
 c0003e8:	f856 2e00 	ldrt	r2, [r6]
 c0003ec:	f857 3e03 	ldrt	r3, [r7, #3]
 c0003f0:	f859 4eff 	ldrt	r4, [r9, #255]
 c0003f4:	ea4f 3203 	mov.w	r2, r3, lsl #12
 c0003f8:	ea5f 78c3 	movs.w	r8, r3, lsl #31
 c0003fc:	ea5f 0243 	movs.w	r2, r3, lsl #1
 c000400:	ea4f 1203 	mov.w	r2, r3, lsl #4
 c000404:	ea5f 32cc 	movs.w	r2, ip, lsl #15
 c000408:	ea4f 43c3 	mov.w	r3, r3, lsl #19
 c00040c:	ea5f 0888 	movs.w	r8, r8, lsl #2
 c000410:	ea5f 1747 	movs.w	r7, r7, lsl #5
 c000414:	ea4f 5c4c 	mov.w	ip, ip, lsl #21
 c000418:	fa04 f302 	lsl.w	r3, r4, r2
 c00041c:	fa01 f102 	lsl.w	r1, r1, r2
 c000420:	fa14 f308 	lsls.w	r3, r4, r8
 c000424:	ea4f 3213 	mov.w	r2, r3, lsr #12
 c000428:	ea5f 0813 	movs.w	r8, r3, lsr #32
 c00042c:	ea5f 0253 	movs.w	r2, r3, lsr #1
 c000430:	ea4f 1213 	mov.w	r2, r3, lsr #4
 c000434:	ea5f 32dc 	movs.w	r2, ip, lsr #15
 c000438:	ea4f 43d3 	mov.w	r3, r3, lsr #19
 c00043c:	ea5f 0898 	movs.w	r8, r8, lsr #2
 c000440:	ea5f 1757 	movs.w	r7, r7, lsr #5
 c000444:	ea4f 5c5c 	mov.w	ip, ip, lsr #21
 c000448:	fa24 f302 	lsr.w	r3, r4, r2
 c00044c:	fa21 f102 	lsr.w	r1, r1, r2
 c000450:	fa34 f308 	lsrs.w	r3, r4, r8
 c000454:	ee21 5791 	mcr	7, 1, r5, cr1, cr1, {4}
 c000458:	fe21 5791 	mcr2	7, 1, r5, cr1, cr1, {4}
 c00045c:	ec44 57f1 	mcrr	7, 15, r5, r4, cr1
 c000460:	fc44 57f1 	mcrr2	7, 15, r5, r4, cr1
 c000464:	fb02 4103 	mla	r1, r2, r3, r4
 c000468:	fb02 4113 	mls	r1, r2, r3, r4
 c00046c:	2115      	movs	r1, #21
 c00046e:	f05f 0115 	movs.w	r1, #21
 c000472:	f05f 0815 	movs.w	r8, #21
 c000476:	f64f 70ff 	movw	r0, #65535
 c00047a:	f64a 3101 	movw	r1, #43777
 c00047e:	f64a 3110 	movw	r1, #43792
 c000482:	f04f 707f 	mov.w	r0, #66846720
 c000486:	f04f 707f 	mov.w	r0, #66846720
 c00048a:	f05f 707f 	movs.w	r0, #66846720
 c00048e:	bf06      	itte	eq
 c000490:	f05f 010c 	movseq.w	r1, #12
 c000494:	210c      	moveq	r1, #12
 c000496:	f04f 010c 	movne.w	r1, #12
 c00049a:	f44f 76e1 	mov.w	r6, #450
 c00049e:	f2c0 0307 	movt	r3, #7
 c0004a2:	f6cf 76ff 	movt	r6, #65535
 c0004a6:	bf08      	it	eq
 c0004a8:	f6c0 74f0 	movteq	r4, #4080
 c0004ac:	ee11 1e92 	mrc	14, 0, r1, cr1, cr2, {4}
 c0004b0:	fe11 1e92 	mrc2	14, 0, r1, cr1, cr2, {4}
 c0004b4:	ec54 5711 	mrrc	7, 1, r5, r4, cr1
 c0004b8:	fc54 5711 	mrrc2	7, 1, r5, r4, cr1
 c0004bc:	f3ef 8800 	mrs	r8, CPSR
 c0004c0:	f381 8800 	msr	CPSR_f, r1
 c0004c4:	f382 8400 	msr	CPSR_s, r2
 c0004c8:	f383 8800 	msr	CPSR_f, r3
 c0004cc:	f384 8800 	msr	CPSR_f, r4
 c0004d0:	f385 8c00 	msr	CPSR_fs, r5
 c0004d4:	4363      	muls	r3, r4
 c0004d6:	fb04 f303 	mul.w	r3, r4, r3
 c0004da:	fb04 f306 	mul.w	r3, r4, r6
 c0004de:	bf08      	it	eq
 c0004e0:	fb04 f305 	muleq.w	r3, r4, r5
 c0004e4:	f07f 0815 	mvns.w	r8, #21
 c0004e8:	f06f 707f 	mvn.w	r0, #66846720
 c0004ec:	f07f 707f 	mvns.w	r0, #66846720
 c0004f0:	bf06      	itte	eq
 c0004f2:	f07f 010c 	mvnseq.w	r1, #12
 c0004f6:	f06f 010c 	mvneq.w	r1, #12
 c0004fa:	f06f 010c 	mvnne.w	r1, #12
 c0004fe:	ea6f 0203 	mvn.w	r2, r3
 c000502:	43da      	mvns	r2, r3
 c000504:	ea6f 45c6 	mvn.w	r5, r6, lsl #19
 c000508:	ea6f 2556 	mvn.w	r5, r6, lsr #9
 c00050c:	ea6f 1526 	mvn.w	r5, r6, asr #4
 c000510:	ea6f 15b6 	mvn.w	r5, r6, ror #6
 c000514:	ea6f 0536 	mvn.w	r5, r6, rrx
 c000518:	bf08      	it	eq
 c00051a:	43da      	mvneq	r2, r3
 c00051c:	f3af 8000 	nop.w
 c000520:	f465 4470 	orn	r4, r5, #61440
 c000524:	ea65 0406 	orn	r4, r5, r6
 c000528:	ea75 0406 	orns	r4, r5, r6
 c00052c:	ea65 1446 	orn	r4, r5, r6, lsl #5
 c000530:	ea75 1456 	orns	r4, r5, r6, lsr #5
 c000534:	ea65 1456 	orn	r4, r5, r6, lsr #5
 c000538:	ea75 1466 	orns	r4, r5, r6, asr #5
 c00053c:	ea65 1476 	orn	r4, r5, r6, ror #5
 c000540:	f445 4470 	orr.w	r4, r5, #61440
 c000544:	ea45 0406 	orr.w	r4, r5, r6
 c000548:	ea45 1446 	orr.w	r4, r5, r6, lsl #5
 c00054c:	ea55 1456 	orrs.w	r4, r5, r6, lsr #5
 c000550:	ea45 1456 	orr.w	r4, r5, r6, lsr #5
 c000554:	ea55 1466 	orrs.w	r4, r5, r6, asr #5
 c000558:	ea45 1476 	orr.w	r4, r5, r6, ror #5
 c00055c:	eac2 0203 	pkhbt	r2, r2, r3
 c000560:	eac2 72c3 	pkhbt	r2, r2, r3, lsl #31
 c000564:	eac2 0203 	pkhbt	r2, r2, r3
 c000568:	eac2 32c3 	pkhbt	r2, r2, r3, lsl #15
 c00056c:	eac3 0202 	pkhbt	r2, r3, r2
 c000570:	eac2 72e3 	pkhtb	r2, r2, r3, asr #31
 c000574:	eac2 32e3 	pkhtb	r2, r2, r3, asr #15
 c000578:	f815 fc04 	pld	[r5, #-4]
 c00057c:	f896 f020 	pld	[r6, #32]
 c000580:	f896 f021 	pld	[r6, #33]
 c000584:	f896 f101 	pld	[r6, #257]
 c000588:	f897 f101 	pld	[r7, #257]
 c00058c:	f818 f001 	pld	[r8, r1]
 c000590:	f815 f002 	pld	[r5, r2]
 c000594:	f810 f032 	pld	[r0, r2, lsl #3]
 c000598:	f818 f022 	pld	[r8, r2, lsl #2]
 c00059c:	f81d f012 	pld	[sp, r2, lsl #1]
 c0005a0:	f81d f002 	pld	[sp, r2]
 c0005a4:	f915 fc04 	pli	[r5, #-4]
 c0005a8:	f996 f020 	pli	[r6, #32]
 c0005ac:	f996 f021 	pli	[r6, #33]
 c0005b0:	f996 f101 	pli	[r6, #257]
 c0005b4:	f997 f101 	pli	[r7, #257]
 c0005b8:	f918 f001 	pli	[r8, r1]
 c0005bc:	f915 f002 	pli	[r5, r2]
 c0005c0:	f910 f032 	pli	[r0, r2, lsl #3]
 c0005c4:	f918 f022 	pli	[r8, r2, lsl #2]
 c0005c8:	f91d f012 	pli	[sp, r2, lsl #1]
 c0005cc:	f91d f002 	pli	[sp, r2]
 c0005d0:	fa83 f182 	qadd	r1, r2, r3
 c0005d4:	fa92 f113 	qadd16	r1, r2, r3
 c0005d8:	fa82 f113 	qadd8	r1, r2, r3
 c0005dc:	bfc6      	itte	gt
 c0005de:	fa83 f182 	qaddgt	r1, r2, r3
 c0005e2:	fa92 f113 	qadd16gt	r1, r2, r3
 c0005e6:	fa82 f113 	qadd8le	r1, r2, r3
 c0005ea:	fa88 f697 	qdadd	r6, r7, r8
 c0005ee:	fa88 f6b7 	qdsub	r6, r7, r8
 c0005f2:	bf84      	itt	hi
 c0005f4:	fa88 f697 	qdaddhi	r6, r7, r8
 c0005f8:	fa88 f6b7 	qdsubhi	r6, r7, r8
 c0005fc:	faec f910 	qsax	r9, ip, r0
 c000600:	bf08      	it	eq
 c000602:	faec f910 	qsaxeq	r9, ip, r0
 c000606:	fa83 f1a2 	qsub	r1, r2, r3
 c00060a:	fad2 f113 	qsub16	r1, r2, r3
 c00060e:	fac2 f113 	qsub8	r1, r2, r3
 c000612:	bfd6      	itet	le
 c000614:	fa83 f1a2 	qsuble	r1, r2, r3
 c000618:	fad2 f113 	qsub16gt	r1, r2, r3
 c00061c:	fac2 f113 	qsub8le	r1, r2, r3
 c000620:	fa92 f1a2 	rbit	r1, r2
 c000624:	bf18      	it	ne
 c000626:	fa92 f1a2 	rbitne	r1, r2
 c00062a:	fa92 f182 	rev.w	r1, r2
 c00062e:	fa98 f288 	rev.w	r2, r8
 c000632:	bf1c      	itt	ne
 c000634:	ba11      	revne	r1, r2
 c000636:	fa98 f188 	revne.w	r1, r8
 c00063a:	fa92 f192 	rev16.w	r1, r2
 c00063e:	fa98 f298 	rev16.w	r2, r8
 c000642:	bf1c      	itt	ne
 c000644:	ba51      	rev16ne	r1, r2
 c000646:	fa98 f198 	rev16ne.w	r1, r8
 c00064a:	fa92 f1b2 	revsh.w	r1, r2
 c00064e:	fa98 f2b8 	revsh.w	r2, r8
 c000652:	bf1c      	itt	ne
 c000654:	bad1      	revshne	r1, r2
 c000656:	fa98 f1b8 	revshne.w	r1, r8
 c00065a:	ea4f 3233 	mov.w	r2, r3, ror #12
 c00065e:	ea5f 78f3 	movs.w	r8, r3, ror #31
 c000662:	ea5f 0273 	movs.w	r2, r3, ror #1
 c000666:	ea4f 1233 	mov.w	r2, r3, ror #4
 c00066a:	ea5f 32fc 	movs.w	r2, ip, ror #15
 c00066e:	ea4f 43f3 	mov.w	r3, r3, ror #19
 c000672:	ea5f 08b8 	movs.w	r8, r8, ror #2
 c000676:	ea5f 1777 	movs.w	r7, r7, ror #5
 c00067a:	ea4f 5c7c 	mov.w	ip, ip, ror #21
 c00067e:	fa64 f302 	ror.w	r3, r4, r2
 c000682:	fa61 f102 	ror.w	r1, r1, r2
 c000686:	fa74 f308 	rors.w	r3, r4, r8
 c00068a:	ea4f 0132 	mov.w	r1, r2, rrx
 c00068e:	ea5f 0132 	movs.w	r1, r2, rrx
 c000692:	bfb4      	ite	lt
 c000694:	ea4f 093c 	movlt.w	r9, ip, rrx
 c000698:	ea5f 0833 	movsge.w	r8, r3, rrx
 c00069c:	f5c5 227f 	rsb	r2, r5, #1044480
 c0006a0:	f1dc 030f 	rsbs	r3, ip, #15
 c0006a4:	f1c1 01ff 	rsb	r1, r1, #255
 c0006a8:	f1c1 01ff 	rsb	r1, r1, #255
 c0006ac:	ebc4 0408 	rsb	r4, r4, r8
 c0006b0:	ebc9 0408 	rsb	r4, r9, r8
 c0006b4:	ebc4 01e8 	rsb	r1, r4, r8, asr #3
 c0006b8:	ebd1 0247 	rsbs	r2, r1, r7, lsl #1
 c0006bc:	fa94 f308 	sadd16	r3, r4, r8
 c0006c0:	bf18      	it	ne
 c0006c2:	fa94 f308 	sadd16ne	r3, r4, r8
 c0006c6:	fa84 f308 	sadd8	r3, r4, r8
 c0006ca:	bf18      	it	ne
 c0006cc:	fa84 f308 	sadd8ne	r3, r4, r8
 c0006d0:	faa2 f907 	sasx	r9, r2, r7
 c0006d4:	bf18      	it	ne
 c0006d6:	faa5 f206 	sasxne	r2, r5, r6
 c0006da:	faa2 f907 	sasx	r9, r2, r7
 c0006de:	bf18      	it	ne
 c0006e0:	faa5 f206 	sasxne	r2, r5, r6
 c0006e4:	f161 0004 	sbc.w	r0, r1, #4
 c0006e8:	f171 0000 	sbcs.w	r0, r1, #0
 c0006ec:	f162 01ff 	sbc.w	r1, r2, #255
 c0006f0:	f167 1355 	sbc.w	r3, r7, #5570645
 c0006f4:	f16c 28aa 	sbc.w	r8, ip, #2852170240
 c0006f8:	f167 39a5 	sbc.w	r9, r7, #2779096485
 c0006fc:	f163 4507 	sbc.w	r5, r3, #2264924160
 c000700:	f162 44ff 	sbc.w	r4, r2, #2139095040
 c000704:	f562 64d0 	sbc.w	r4, r2, #1664
 c000708:	eb65 0406 	sbc.w	r4, r5, r6
 c00070c:	eb75 0406 	sbcs.w	r4, r5, r6
 c000710:	eb61 0903 	sbc.w	r9, r1, r3
 c000714:	eb71 0903 	sbcs.w	r9, r1, r3
 c000718:	eb61 1033 	sbc.w	r0, r1, r3, ror #4
 c00071c:	eb71 10c3 	sbcs.w	r0, r1, r3, lsl #7
 c000720:	eb61 70d3 	sbc.w	r0, r1, r3, lsr #31
 c000724:	eb71 0023 	sbcs.w	r0, r1, r3, asr #32
 c000728:	f345 4400 	sbfx	r4, r5, #16, #1
 c00072c:	bfc8      	it	gt
 c00072e:	f345 440f 	sbfxgt	r4, r5, #16, #16
 c000732:	faa9 f582 	sel	r5, r9, r2
 c000736:	bfd8      	it	le
 c000738:	faa9 f582 	selle	r5, r9, r2
 c00073c:	f3af 8004 	sev.w
 c000740:	bf08      	it	eq
 c000742:	f3af 8004 	seveq.w
 c000746:	fa92 f103 	sadd16	r1, r2, r3
 c00074a:	fa82 f103 	sadd8	r1, r2, r3
 c00074e:	bfcc      	ite	gt
 c000750:	fa92 f103 	sadd16gt	r1, r2, r3
 c000754:	fa82 f103 	sadd8le	r1, r2, r3
 c000758:	faa8 f422 	shasx	r4, r8, r2
 c00075c:	bfc8      	it	gt
 c00075e:	faa8 f422 	shasxgt	r4, r8, r2
 c000762:	faa8 f422 	shasx	r4, r8, r2
 c000766:	bfc8      	it	gt
 c000768:	faa8 f422 	shasxgt	r4, r8, r2
 c00076c:	fae8 f422 	shsax	r4, r8, r2
 c000770:	bfc8      	it	gt
 c000772:	fae8 f422 	shsaxgt	r4, r8, r2
 c000776:	fae8 f422 	shsax	r4, r8, r2
 c00077a:	bfc8      	it	gt
 c00077c:	fae8 f422 	shsaxgt	r4, r8, r2
 c000780:	fad8 f422 	shsub16	r4, r8, r2
 c000784:	fac8 f422 	shsub8	r4, r8, r2
 c000788:	bfc4      	itt	gt
 c00078a:	fad8 f422 	shsub16gt	r4, r8, r2
 c00078e:	fac8 f422 	shsub8gt	r4, r8, r2
 c000792:	fb11 0309 	smlabb	r3, r1, r9, r0
 c000796:	fb16 1514 	smlabt	r5, r6, r4, r1
 c00079a:	fb12 2423 	smlatb	r4, r2, r3, r2
 c00079e:	fb13 4838 	smlatt	r8, r3, r8, r4
 c0007a2:	bfcb      	itete	gt
 c0007a4:	fb11 0309 	smlabbgt	r3, r1, r9, r0
 c0007a8:	fb16 1514 	smlabtle	r5, r6, r4, r1
 c0007ac:	fb12 2423 	smlatbgt	r4, r2, r3, r2
 c0007b0:	fb13 4838 	smlattle	r8, r3, r8, r4
 c0007b4:	fb23 8205 	smlad	r2, r3, r5, r8
 c0007b8:	fb23 8215 	smladx	r2, r3, r5, r8
 c0007bc:	bf84      	itt	hi
 c0007be:	fb23 8205 	smladhi	r2, r3, r5, r8
 c0007c2:	fb23 8215 	smladxhi	r2, r3, r5, r8
 c0007c6:	fbc5 2308 	smlal	r2, r3, r5, r8
 c0007ca:	bf08      	it	eq
 c0007cc:	fbc5 2308 	smlaleq	r2, r3, r5, r8
 c0007d0:	fbc9 3180 	smlalbb	r3, r1, r9, r0
 c0007d4:	fbc4 5691 	smlalbt	r5, r6, r4, r1
 c0007d8:	fbc3 42a2 	smlaltb	r4, r2, r3, r2
 c0007dc:	fbc8 83b4 	smlaltt	r8, r3, r8, r4
 c0007e0:	bfad      	iteet	ge
 c0007e2:	fbc9 3180 	smlalbbge	r3, r1, r9, r0
 c0007e6:	fbc4 5691 	smlalbtlt	r5, r6, r4, r1
 c0007ea:	fbc3 42a2 	smlaltblt	r4, r2, r3, r2
 c0007ee:	fbc8 83b4 	smlalttge	r8, r3, r8, r4
 c0007f2:	fbc5 23c8 	smlald	r2, r3, r5, r8
 c0007f6:	fbc5 23d8 	smlaldx	r2, r3, r5, r8
 c0007fa:	bf0c      	ite	eq
 c0007fc:	fbc5 23c8 	smlaldeq	r2, r3, r5, r8
 c000800:	fbc5 23d8 	smlaldxne	r2, r3, r5, r8
 c000804:	fb33 820a 	smlawb	r2, r3, sl, r8
 c000808:	fb33 9815 	smlawt	r8, r3, r5, r9
 c00080c:	bf0c      	ite	eq
 c00080e:	fb37 8205 	smlawbeq	r2, r7, r5, r8
 c000812:	fb33 8110 	smlawtne	r1, r3, r0, r8
 c000816:	fb43 8205 	smlsd	r2, r3, r5, r8
 c00081a:	fb43 8215 	smlsdx	r2, r3, r5, r8
 c00081e:	bfd4      	ite	le
 c000820:	fb43 8205 	smlsdle	r2, r3, r5, r8
 c000824:	fb43 8215 	smlsdxgt	r2, r3, r5, r8
 c000828:	fbd5 29c1 	smlsld	r2, r9, r5, r1
 c00082c:	fbd2 4bd8 	smlsldx	r4, fp, r2, r8
 c000830:	bfac      	ite	ge
 c000832:	fbd5 82c6 	smlsldge	r8, r2, r5, r6
 c000836:	fbd3 10d8 	smlsldxlt	r1, r0, r3, r8
 c00083a:	fb52 4103 	smmla	r1, r2, r3, r4
 c00083e:	fb53 1412 	smmlar	r4, r3, r2, r1
 c000842:	bf34      	ite	cc
 c000844:	fb52 4103 	smmlacc	r1, r2, r3, r4
 c000848:	fb53 1412 	smmlarcs	r4, r3, r2, r1
 c00084c:	fb62 4103 	smmls	r1, r2, r3, r4
 c000850:	fb63 1412 	smmlsr	r4, r3, r2, r1
 c000854:	bf34      	ite	cc
 c000856:	fb62 4103 	smmlscc	r1, r2, r3, r4
 c00085a:	fb63 1412 	smmlsrcs	r4, r3, r2, r1
 c00085e:	fb53 f204 	smmul	r2, r3, r4
 c000862:	fb52 f311 	smmulr	r3, r2, r1
 c000866:	bf34      	ite	cc
 c000868:	fb53 f204 	smmulcc	r2, r3, r4
 c00086c:	fb52 f311 	smmulrcs	r3, r2, r1
 c000870:	fb23 f204 	smuad	r2, r3, r4
 c000874:	fb22 f311 	smuadx	r3, r2, r1
 c000878:	bfb4      	ite	lt
 c00087a:	fb23 f204 	smuadlt	r2, r3, r4
 c00087e:	fb22 f311 	smuadxge	r3, r2, r1
 c000882:	fb19 f300 	smulbb	r3, r9, r0
 c000886:	fb14 f511 	smulbt	r5, r4, r1
 c00088a:	fb12 f422 	smultb	r4, r2, r2
 c00088e:	fb13 f834 	smultt	r8, r3, r4
 c000892:	bfab      	itete	ge
 c000894:	fb19 f100 	smulbbge	r1, r9, r0
 c000898:	fb16 f514 	smulbtlt	r5, r6, r4
 c00089c:	fb13 f222 	smultbge	r2, r3, r2
 c0008a0:	fb13 f834 	smulttlt	r8, r3, r4
 c0008a4:	fb80 3901 	smull	r3, r9, r0, r1
 c0008a8:	bf08      	it	eq
 c0008aa:	fb84 8305 	smulleq	r8, r3, r4, r5
 c0008ae:	fb39 f300 	smulwb	r3, r9, r0
 c0008b2:	fb39 f312 	smulwt	r3, r9, r2
 c0008b6:	bfcc      	ite	gt
 c0008b8:	fb39 f300 	smulwbgt	r3, r9, r0
 c0008bc:	fb39 f312 	smulwtle	r3, r9, r2
 c0008c0:	fb40 f301 	smusd	r3, r0, r1
 c0008c4:	fb49 f312 	smusdx	r3, r9, r2
 c0008c8:	bf0c      	ite	eq
 c0008ca:	fb43 f802 	smusdeq	r8, r3, r2
 c0008ce:	fb44 f713 	smusdxne	r7, r4, r3
 c0008d2:	f30a 0800 	ssat	r8, #0, sl
 c0008d6:	f30a 0800 	ssat	r8, #0, sl
 c0008da:	f30a 78c0 	ssat	r8, #0, sl, lsl #31
 c0008de:	f32a 0840 	ssat	r8, #0, sl, asr #1
 c0008e2:	f327 0200 	ssat16	r2, #0, r7
 c0008e6:	f325 030f 	ssat16	r3, #15, r5
 c0008ea:	fae3 f204 	ssax	r2, r3, r4
 c0008ee:	bfb8      	it	lt
 c0008f0:	fae3 f204 	ssaxlt	r2, r3, r4
 c0008f4:	fae3 f204 	ssax	r2, r3, r4
 c0008f8:	bfb8      	it	lt
 c0008fa:	fae3 f204 	ssaxlt	r2, r3, r4
 c0008fe:	fad0 f106 	ssub16	r1, r0, r6
 c000902:	fac2 f904 	ssub8	r9, r2, r4
 c000906:	bf14      	ite	ne
 c000908:	fad3 f502 	ssub16ne	r5, r3, r2
 c00090c:	fac1 f502 	ssub8eq	r5, r1, r2
 c000910:	e884 0330 	stmia.w	r4, {r4, r5, r8, r9}
 c000914:	e884 0060 	stmia.w	r4, {r5, r6}
 c000918:	e8a5 0108 	stmia.w	r5!, {r3, r8}
 c00091c:	e884 0330 	stmia.w	r4, {r4, r5, r8, r9}
 c000920:	e884 0060 	stmia.w	r4, {r5, r6}
 c000924:	e8a5 0108 	stmia.w	r5!, {r3, r8}
 c000928:	e8a5 0006 	stmia.w	r5!, {r1, r2}
 c00092c:	e882 0006 	stmia.w	r2, {r1, r2}
 c000930:	e884 0330 	stmia.w	r4, {r4, r5, r8, r9}
 c000934:	e884 0060 	stmia.w	r4, {r5, r6}
 c000938:	e8a5 0108 	stmia.w	r5!, {r3, r8}
 c00093c:	e884 0330 	stmia.w	r4, {r4, r5, r8, r9}
 c000940:	e884 0060 	stmia.w	r4, {r5, r6}
 c000944:	e8a5 0108 	stmia.w	r5!, {r3, r8}
 c000948:	e8a5 0108 	stmia.w	r5!, {r3, r8}
 c00094c:	e904 0330 	stmdb	r4, {r4, r5, r8, r9}
 c000950:	e904 0060 	stmdb	r4, {r5, r6}
 c000954:	e925 0108 	stmdb	r5!, {r3, r8}
 c000958:	e8a5 0108 	stmia.w	r5!, {r3, r8}
 c00095c:	f845 5c04 	str.w	r5, [r5, #-4]
 c000960:	6235      	str	r5, [r6, #32]
 c000962:	f8c6 5021 	str.w	r5, [r6, #33]
 c000966:	f8c6 5101 	str.w	r5, [r6, #257]
 c00096a:	f8c7 3101 	str.w	r3, [r7, #257]
 c00096e:	f844 2fff 	str.w	r2, [r4, #255]!
 c000972:	f84d 8f04 	str.w	r8, [sp, #4]!
 c000976:	f84d ed04 	str.w	lr, [sp, #-4]!
 c00097a:	f844 2bff 	str.w	r2, [r4], #255
 c00097e:	f84d 8b04 	str.w	r8, [sp], #4
 c000982:	f84d e904 	str.w	lr, [sp], #-4
 c000986:	f848 1001 	str.w	r1, [r8, r1]
 c00098a:	f845 4002 	str.w	r4, [r5, r2]
 c00098e:	f840 6032 	str.w	r6, [r0, r2, lsl #3]
 c000992:	f848 8022 	str.w	r8, [r8, r2, lsl #2]
 c000996:	f84d 7012 	str.w	r7, [sp, r2, lsl #1]
 c00099a:	f84d 7002 	str.w	r7, [sp, r2]
 c00099e:	f805 5c04 	strb.w	r5, [r5, #-4]
 c0009a2:	f886 5020 	strb.w	r5, [r6, #32]
 c0009a6:	f886 5021 	strb.w	r5, [r6, #33]
 c0009aa:	f886 5101 	strb.w	r5, [r6, #257]
 c0009ae:	f887 e101 	strb.w	lr, [r7, #257]
 c0009b2:	f808 5fff 	strb.w	r5, [r8, #255]!
 c0009b6:	f805 2f04 	strb.w	r2, [r5, #4]!
 c0009ba:	f804 1d04 	strb.w	r1, [r4, #-4]!
 c0009be:	f803 ebff 	strb.w	lr, [r3], #255
 c0009c2:	f802 9b04 	strb.w	r9, [r2], #4
 c0009c6:	f80d 3904 	strb.w	r3, [sp], #-4
 c0009ca:	f808 4f00 	strb.w	r4, [r8]!
 c0009ce:	f808 1001 	strb.w	r1, [r8, r1]
 c0009d2:	f805 4002 	strb.w	r4, [r5, r2]
 c0009d6:	f800 6032 	strb.w	r6, [r0, r2, lsl #3]
 c0009da:	f808 8022 	strb.w	r8, [r8, r2, lsl #2]
 c0009de:	f80d 7012 	strb.w	r7, [sp, r2, lsl #1]
 c0009e2:	f80d 7002 	strb.w	r7, [sp, r2]
 c0009e6:	f802 1e00 	strbt	r1, [r2]
 c0009ea:	f808 1e00 	strbt	r1, [r8]
 c0009ee:	f808 1e03 	strbt	r1, [r8, #3]
 c0009f2:	f808 1eff 	strbt	r1, [r8, #255]
 c0009f6:	e9c6 3506 	strd	r3, r5, [r6, #24]
 c0009fa:	e9e6 3506 	strd	r3, r5, [r6, #24]!
 c0009fe:	e8e6 3501 	strd	r3, r5, [r6], #4
 c000a02:	e866 3502 	strd	r3, r5, [r6], #-8
 c000a06:	e9c6 3500 	strd	r3, r5, [r6]
 c000a0a:	e9c3 8100 	strd	r8, r1, [r3]
 c000a0e:	e844 8100 	strex	r1, r8, [r4]
 c000a12:	e844 2800 	strex	r8, r2, [r4]
 c000a16:	e84d c220 	strex	r2, ip, [sp, #128]
 c000a1a:	e8c7 1f45 	strexb	r5, r1, [r7]
 c000a1e:	e8cc 7f59 	strexh	r9, r7, [ip]
 c000a22:	f825 5c04 	strh.w	r5, [r5, #-4]
 c000a26:	8435      	strh	r5, [r6, #32]
 c000a28:	f8a6 5021 	strh.w	r5, [r6, #33]
 c000a2c:	f8a6 5101 	strh.w	r5, [r6, #257]
 c000a30:	f8a7 e101 	strh.w	lr, [r7, #257]
 c000a34:	f828 5fff 	strh.w	r5, [r8, #255]!
 c000a38:	f825 2f04 	strh.w	r2, [r5, #4]!
 c000a3c:	f824 1d04 	strh.w	r1, [r4, #-4]!
 c000a40:	f823 ebff 	strh.w	lr, [r3], #255
 c000a44:	f822 9b04 	strh.w	r9, [r2], #4
 c000a48:	f82d 3904 	strh.w	r3, [sp], #-4
 c000a4c:	f828 1001 	strh.w	r1, [r8, r1]
 c000a50:	f825 4002 	strh.w	r4, [r5, r2]
 c000a54:	f820 6032 	strh.w	r6, [r0, r2, lsl #3]
 c000a58:	f828 8022 	strh.w	r8, [r8, r2, lsl #2]
 c000a5c:	f82d 7012 	strh.w	r7, [sp, r2, lsl #1]
 c000a60:	f82d 7002 	strh.w	r7, [sp, r2]
 c000a64:	f822 1e00 	strht	r1, [r2]
 c000a68:	f828 1e00 	strht	r1, [r8]
 c000a6c:	f828 1e03 	strht	r1, [r8, #3]
 c000a70:	f828 1eff 	strht	r1, [r8, #255]
 c000a74:	f842 1e00 	strt	r1, [r2]
 c000a78:	f848 1e00 	strt	r1, [r8]
 c000a7c:	f848 1e03 	strt	r1, [r8, #3]
 c000a80:	f848 1eff 	strt	r1, [r8, #255]
 c000a84:	bf0a      	itet	eq
 c000a86:	1f11      	subeq	r1, r2, #4
 c000a88:	f2a3 35ff 	subwne	r5, r3, #1023
 c000a8c:	f1a5 04fa 	subeq.w	r4, r5, #250
 c000a90:	f5ad 6280 	sub.w	r2, sp, #1024
 c000a94:	f5a8 427f 	sub.w	r2, r8, #65280
 c000a98:	f2a3 1201 	subw	r2, r3, #257
 c000a9c:	f2a3 1201 	subw	r2, r3, #257
 c000aa0:	f5a6 7c80 	sub.w	ip, r6, #256
 c000aa4:	f2a6 1c00 	subw	ip, r6, #256
 c000aa8:	f5b2 71f8 	subs.w	r1, r2, #496
 c000aac:	eba5 0406 	sub.w	r4, r5, r6
 c000ab0:	eba5 1446 	sub.w	r4, r5, r6, lsl #5
 c000ab4:	eba5 1456 	sub.w	r4, r5, r6, lsr #5
 c000ab8:	eba5 1456 	sub.w	r4, r5, r6, lsr #5
 c000abc:	eba5 1466 	sub.w	r4, r5, r6, asr #5
 c000ac0:	eba5 1476 	sub.w	r4, r5, r6, ror #5
 c000ac4:	eba2 053c 	sub.w	r5, r2, ip, rrx
 c000ac8:	df00      	svc	0
 c000aca:	bf0c      	ite	eq
 c000acc:	dfff      	svceq	255
 c000ace:	df21      	svcne	33
 c000ad0:	fa43 f284 	sxtab	r2, r3, r4
 c000ad4:	fa45 f486 	sxtab	r4, r5, r6
 c000ad8:	bfb8      	it	lt
 c000ada:	fa42 f699 	sxtablt	r6, r2, r9, ror #8
 c000ade:	fa41 f5a4 	sxtab	r5, r1, r4, ror #16
 c000ae2:	fa48 f7b3 	sxtab	r7, r8, r3, ror #24
 c000ae6:	fa22 f687 	sxtab16	r6, r2, r7
 c000aea:	fa25 f398 	sxtab16	r3, r5, r8, ror #8
 c000aee:	fa22 f3a1 	sxtab16	r3, r2, r1, ror #16
 c000af2:	bf14      	ite	ne
 c000af4:	fa21 f084 	sxtab16ne	r0, r1, r4
 c000af8:	fa22 f1b3 	sxtab16eq	r1, r2, r3, ror #24
 c000afc:	fa03 f189 	sxtah	r1, r3, r9
 c000b00:	fa08 f393 	sxtah	r3, r8, r3, ror #8
 c000b04:	fa03 f9b3 	sxtah	r9, r3, r3, ror #24
 c000b08:	bf8c      	ite	hi
 c000b0a:	fa01 f686 	sxtahhi	r6, r1, r6
 c000b0e:	fa02 f2a4 	sxtahls	r2, r2, r4, ror #16
 c000b12:	b275      	sxtb	r5, r6
 c000b14:	fa4f f699 	sxtb.w	r6, r9, ror #8
 c000b18:	fa4f f8b3 	sxtb.w	r8, r3, ror #24
 c000b1c:	bfac      	ite	ge
 c000b1e:	b262      	sxtbge	r2, r4
 c000b20:	fa4f f5a1 	sxtblt.w	r5, r1, ror #16
 c000b24:	fa4f f788 	sxtb.w	r7, r8
 c000b28:	fa2f f184 	sxtb16	r1, r4
 c000b2c:	fa2f f687 	sxtb16	r6, r7
 c000b30:	fa2f f3a1 	sxtb16	r3, r1, ror #16
 c000b34:	bf2c      	ite	cs
 c000b36:	fa2f f395 	sxtb16cs	r3, r5, ror #8
 c000b3a:	fa2f f2b3 	sxtb16cc	r2, r3, ror #24
 c000b3e:	b231      	sxth	r1, r6
 c000b40:	fa0f f398 	sxth.w	r3, r8, ror #8
 c000b44:	fa0f f9b3 	sxth.w	r9, r3, ror #24
 c000b48:	bf1c      	itt	ne
 c000b4a:	fa0f f389 	sxthne.w	r3, r9
 c000b4e:	fa0f f2a2 	sxthne.w	r2, r2, ror #16
 c000b52:	fa0f f788 	sxth.w	r7, r8
 c000b56:	b275      	sxtb	r5, r6
 c000b58:	fa4f f699 	sxtb.w	r6, r9, ror #8
 c000b5c:	fa4f f8b3 	sxtb.w	r8, r3, ror #24
 c000b60:	bfac      	ite	ge
 c000b62:	b262      	sxtbge	r2, r4
 c000b64:	fa4f f5a1 	sxtblt.w	r5, r1, ror #16
 c000b68:	fa2f f184 	sxtb16	r1, r4
 c000b6c:	fa2f f687 	sxtb16	r6, r7
 c000b70:	fa2f f3a1 	sxtb16	r3, r1, ror #16
 c000b74:	bf2c      	ite	cs
 c000b76:	fa2f f395 	sxtb16cs	r3, r5, ror #8
 c000b7a:	fa2f f2b3 	sxtb16cc	r2, r3, ror #24
 c000b7e:	b231      	sxth	r1, r6
 c000b80:	fa0f f398 	sxth.w	r3, r8, ror #8
 c000b84:	fa0f f9b3 	sxth.w	r9, r3, ror #24
 c000b88:	bf1c      	itt	ne
 c000b8a:	fa0f f389 	sxthne.w	r3, r9
 c000b8e:	fa0f f2a2 	sxthne.w	r2, r2, ror #16
 c000b92:	e8d3 f008 	tbb	[r3, r8]
 c000b96:	e8d3 f018 	tbh	[r3, r8, lsl #1]
 c000b9a:	bf08      	it	eq
 c000b9c:	e8d3 f008 	tbbeq	[r3, r8]
 c000ba0:	bf28      	it	cs
 c000ba2:	e8d3 f018 	tbhcs	[r3, r8, lsl #1]
 c000ba6:	f495 4f70 	teq	r5, #61440
 c000baa:	ea94 0f05 	teq	r4, r5
 c000bae:	ea94 1f45 	teq	r4, r5, lsl #5
 c000bb2:	ea94 1f55 	teq	r4, r5, lsr #5
 c000bb6:	ea94 1f55 	teq	r4, r5, lsr #5
 c000bba:	ea94 1f65 	teq	r4, r5, asr #5
 c000bbe:	ea94 1f75 	teq	r4, r5, ror #5
 c000bc2:	f415 4f70 	tst.w	r5, #61440
 c000bc6:	422a      	tst	r2, r5
 c000bc8:	ea13 1f4c 	tst.w	r3, ip, lsl #5
 c000bcc:	ea14 1f1b 	tst.w	r4, fp, lsr #4
 c000bd0:	ea15 3f1a 	tst.w	r5, sl, lsr #12
 c000bd4:	ea16 7fa9 	tst.w	r6, r9, asr #30
 c000bd8:	ea17 0fb8 	tst.w	r7, r8, ror #2
 c000bdc:	fa92 f143 	uadd16	r1, r2, r3
 c000be0:	fa82 f143 	uadd8	r1, r2, r3
 c000be4:	bfcc      	ite	gt
 c000be6:	fa92 f143 	uadd16gt	r1, r2, r3
 c000bea:	fa82 f143 	uadd8le	r1, r2, r3
 c000bee:	faac f940 	uasx	r9, ip, r0
 c000bf2:	bf08      	it	eq
 c000bf4:	faac f940 	uasxeq	r9, ip, r0
 c000bf8:	faac f940 	uasx	r9, ip, r0
 c000bfc:	bf08      	it	eq
 c000bfe:	faac f940 	uasxeq	r9, ip, r0
 c000c02:	f3c5 4400 	ubfx	r4, r5, #16, #1
 c000c06:	bfc8      	it	gt
 c000c08:	f3c5 440f 	ubfxgt	r4, r5, #16, #16
 c000c0c:	fa98 f462 	uhadd16	r4, r8, r2
 c000c10:	fa88 f462 	uhadd8	r4, r8, r2
 c000c14:	bfc4      	itt	gt
 c000c16:	fa98 f462 	uhadd16gt	r4, r8, r2
 c000c1a:	fa88 f462 	uhadd8gt	r4, r8, r2
 c000c1e:	faa1 f465 	uhasx	r4, r1, r5
 c000c22:	fae6 f566 	uhsax	r5, r6, r6
 c000c26:	bfc4      	itt	gt
 c000c28:	faa9 f668 	uhasxgt	r6, r9, r8
 c000c2c:	fae8 f76c 	uhsaxgt	r7, r8, ip
 c000c30:	faa1 f465 	uhasx	r4, r1, r5
 c000c34:	fae6 f566 	uhsax	r5, r6, r6
 c000c38:	bfc4      	itt	gt
 c000c3a:	faa9 f668 	uhasxgt	r6, r9, r8
 c000c3e:	fae8 f76c 	uhsaxgt	r7, r8, ip
 c000c42:	fad8 f563 	uhsub16	r5, r8, r3
 c000c46:	fac7 f166 	uhsub8	r1, r7, r6
 c000c4a:	bfbc      	itt	lt
 c000c4c:	fad9 f46c 	uhsub16lt	r4, r9, ip
 c000c50:	fac1 f365 	uhsub8lt	r3, r1, r5
 c000c54:	fbe5 3466 	umaal	r3, r4, r5, r6
 c000c58:	bfb8      	it	lt
 c000c5a:	fbe5 3466 	umaallt	r3, r4, r5, r6
 c000c5e:	fbe6 2408 	umlal	r2, r4, r6, r8
 c000c62:	bfc8      	it	gt
 c000c64:	fbe2 6106 	umlalgt	r6, r1, r2, r6
 c000c68:	fba6 2408 	umull	r2, r4, r6, r8
 c000c6c:	bfc8      	it	gt
 c000c6e:	fba2 6106 	umullgt	r6, r1, r2, r6
 c000c72:	fa92 f153 	uqadd16	r1, r2, r3
 c000c76:	fa84 f358 	uqadd8	r3, r4, r8
 c000c7a:	bfcc      	ite	gt
 c000c7c:	fa97 f459 	uqadd16gt	r4, r7, r9
 c000c80:	fa81 f852 	uqadd8le	r8, r1, r2
 c000c84:	faa2 f153 	uqasx	r1, r2, r3
 c000c88:	fae4 f358 	uqsax	r3, r4, r8
 c000c8c:	bfcc      	ite	gt
 c000c8e:	faa7 f459 	uqasxgt	r4, r7, r9
 c000c92:	fae1 f852 	uqsaxle	r8, r1, r2
 c000c96:	faa2 f153 	uqasx	r1, r2, r3
 c000c9a:	fae4 f358 	uqsax	r3, r4, r8
 c000c9e:	bfcc      	ite	gt
 c000ca0:	faa7 f459 	uqasxgt	r4, r7, r9
 c000ca4:	fae1 f852 	uqsaxle	r8, r1, r2
 c000ca8:	fac2 f859 	uqsub8	r8, r2, r9
 c000cac:	fad9 f157 	uqsub16	r1, r9, r7
 c000cb0:	bfcc      	ite	gt
 c000cb2:	fac1 f356 	uqsub8gt	r3, r1, r6
 c000cb6:	fad6 f454 	uqsub16le	r4, r6, r4
 c000cba:	fb79 f107 	usad8	r1, r9, r7
 c000cbe:	fb72 c809 	usada8	r8, r2, r9, ip
 c000cc2:	bfcc      	ite	gt
 c000cc4:	fb71 9306 	usada8gt	r3, r1, r6, r9
 c000cc8:	fb76 f404 	usad8le	r4, r6, r4
 c000ccc:	f38a 0801 	usat	r8, #1, sl
 c000cd0:	f38a 0804 	usat	r8, #4, sl
 c000cd4:	f38a 78c5 	usat	r8, #5, sl, lsl #31
 c000cd8:	f3aa 0850 	usat	r8, #16, sl, asr #1
 c000cdc:	f3a7 0202 	usat16	r2, #2, r7
 c000ce0:	f3a5 030f 	usat16	r3, #15, r5
 c000ce4:	fae3 f244 	usax	r2, r3, r4
 c000ce8:	bf18      	it	ne
 c000cea:	fae1 f649 	usaxne	r6, r1, r9
 c000cee:	fae3 f244 	usax	r2, r3, r4
 c000cf2:	bf18      	it	ne
 c000cf4:	fae1 f649 	usaxne	r6, r1, r9
 c000cf8:	fad2 f447 	usub16	r4, r2, r7
 c000cfc:	fac8 f145 	usub8	r1, r8, r5
 c000d00:	bf8c      	ite	hi
 c000d02:	fad1 f143 	usub16hi	r1, r1, r3
 c000d06:	fac2 f943 	usub8ls	r9, r2, r3
 c000d0a:	fa53 f284 	uxtab	r2, r3, r4
 c000d0e:	fa55 f486 	uxtab	r4, r5, r6
 c000d12:	bfb8      	it	lt
 c000d14:	fa52 f699 	uxtablt	r6, r2, r9, ror #8
 c000d18:	fa51 f5a4 	uxtab	r5, r1, r4, ror #16
 c000d1c:	fa58 f7b3 	uxtab	r7, r8, r3, ror #24
 c000d20:	bfa8      	it	ge
 c000d22:	fa31 f084 	uxtab16ge	r0, r1, r4
 c000d26:	fa32 f687 	uxtab16	r6, r2, r7
 c000d2a:	fa35 f398 	uxtab16	r3, r5, r8, ror #8
 c000d2e:	fa32 f3a1 	uxtab16	r3, r2, r1, ror #16
 c000d32:	bf08      	it	eq
 c000d34:	fa32 f1b3 	uxtab16eq	r1, r2, r3, ror #24
 c000d38:	fa13 f189 	uxtah	r1, r3, r9
 c000d3c:	bf88      	it	hi
 c000d3e:	fa11 f686 	uxtahhi	r6, r1, r6
 c000d42:	fa18 f393 	uxtah	r3, r8, r3, ror #8
 c000d46:	bf38      	it	cc
 c000d48:	fa12 f2a4 	uxtahcc	r2, r2, r4, ror #16
 c000d4c:	fa13 f9b3 	uxtah	r9, r3, r3, ror #24
 c000d50:	bfa8      	it	ge
 c000d52:	b2e2      	uxtbge	r2, r4
 c000d54:	b2f5      	uxtb	r5, r6
 c000d56:	fa5f f699 	uxtb.w	r6, r9, ror #8
 c000d5a:	bf38      	it	cc
 c000d5c:	fa5f f5a1 	uxtbcc.w	r5, r1, ror #16
 c000d60:	fa5f f8b3 	uxtb.w	r8, r3, ror #24
 c000d64:	fa5f f788 	uxtb.w	r7, r8
 c000d68:	fa3f f184 	uxtb16	r1, r4
 c000d6c:	fa3f f687 	uxtb16	r6, r7
 c000d70:	bf28      	it	cs
 c000d72:	fa3f f395 	uxtb16cs	r3, r5, ror #8
 c000d76:	fa3f f3a1 	uxtb16	r3, r1, ror #16
 c000d7a:	bfa8      	it	ge
 c000d7c:	fa3f f2b3 	uxtb16ge	r2, r3, ror #24
 c000d80:	bf18      	it	ne
 c000d82:	fa1f f389 	uxthne.w	r3, r9
 c000d86:	b2b1      	uxth	r1, r6
 c000d88:	fa1f f398 	uxth.w	r3, r8, ror #8
 c000d8c:	bfd8      	it	le
 c000d8e:	fa1f f2a2 	uxthle.w	r2, r2, ror #16
 c000d92:	fa1f f9b3 	uxth.w	r9, r3, ror #24
 c000d96:	fa1f f788 	uxth.w	r7, r8
 c000d9a:	bf20      	wfe
 c000d9c:	bf30      	wfi
 c000d9e:	bf10      	yield
 c000da0:	bfb6      	itet	lt
 c000da2:	bf20      	wfelt
 c000da4:	bf30      	wfige
 c000da6:	bf10      	yieldlt
 c000da8:	f3af 8000 	nop.w